target datalayout = "e-m:e-p270:32:32-p271:32:32-p272:64:64-i64:64-i128:128-f80:128-n8:16:32:64-S128"
target triple = "x86_64-pc-linux-gnu"

%"class.boost::urls::detail::query_ref" = type <{ ptr, ptr, i64, i64, i64, i8, [7 x i8] }>
%"class.boost::urls::params_encoded_ref" = type { %"class.boost::urls::params_encoded_base", ptr }
%"class.boost::urls::params_encoded_base" = type { %"class.boost::urls::detail::query_ref" }
%"class.boost::urls::params_encoded_base::iterator" = type { %"struct.boost::urls::detail::params_iter_impl" }
%"struct.boost::urls::detail::params_iter_impl" = type { [8 x i8], %"class.boost::urls::detail::query_ref", i64, i64, i64, i64, i64, i64 }
%"class.boost::urls::pct_string_view" = type { %"class.boost::urls::grammar::string_view_base", i64 }
%"class.boost::urls::grammar::string_view_base" = type { %"class.boost::core::basic_string_view" }
%"class.boost::core::basic_string_view" = type { ptr, i64 }
%"struct.boost::urls::detail::any_params_iter.base" = type <{ ptr, %"class.boost::core::basic_string_view", %"class.boost::core::basic_string_view", i8 }>
%"struct.boost::urls::detail::param_encoded_value_iter" = type <{ %"struct.boost::urls::detail::any_params_iter.base", [7 x i8], i64, i8, i8, [6 x i8] }>
%"struct.boost::urls::detail::any_params_iter" = type <{ ptr, %"class.boost::core::basic_string_view", %"class.boost::core::basic_string_view", i8, [7 x i8] }>

@_ZTVN5boost4urls6detail24param_encoded_value_iterE = external unnamed_addr constant { [7 x ptr] }, align 8

; Function Attrs: mustprogress nounwind uwtable
define linkonce_odr hidden void @_ZN5boost4urls6detail15any_params_iterC2EbNS_4core17basic_string_viewIcEES5_(ptr noundef nonnull align 8 dereferenceable(41) %0, i1 noundef zeroext %1, ptr %2, i64 %3, ptr %4, i64 %5) unnamed_addr #2 comdat align 2 {
  %7 = alloca %"class.boost::core::basic_string_view", align 8
  %8 = alloca %"class.boost::core::basic_string_view", align 8
  %9 = alloca ptr, align 8
  %10 = alloca i8, align 1
  %11 = getelementptr inbounds nuw { ptr, i64 }, ptr %7, i32 0, i32 0
  store ptr %2, ptr %11, align 8
  %12 = getelementptr inbounds nuw { ptr, i64 }, ptr %7, i32 0, i32 1
  store i64 %3, ptr %12, align 8
  %13 = getelementptr inbounds nuw { ptr, i64 }, ptr %8, i32 0, i32 0
  store ptr %4, ptr %13, align 8
  %14 = getelementptr inbounds nuw { ptr, i64 }, ptr %8, i32 0, i32 1
  store i64 %5, ptr %14, align 8
  store ptr %0, ptr %9, align 8, !tbaa !3
  %15 = zext i1 %1 to i8
  store i8 %15, ptr %10, align 1, !tbaa !18
  %16 = load ptr, ptr %9, align 8
  store ptr getelementptr inbounds inrange(-16, 40) ({ [7 x ptr] }, ptr @_ZTVN5boost4urls6detail15any_params_iterE, i32 0, i32 0, i32 2), ptr %16, align 8, !tbaa !29
  %17 = getelementptr inbounds nuw %"struct.boost::urls::detail::any_params_iter", ptr %16, i32 0, i32 1
  call void @llvm.memcpy.p0.p0.i64(ptr align 8 %17, ptr align 8 %7, i64 16, i1 false), !tbaa.struct !41
  %18 = getelementptr inbounds nuw %"struct.boost::urls::detail::any_params_iter", ptr %16, i32 0, i32 2
  call void @llvm.memcpy.p0.p0.i64(ptr align 8 %18, ptr align 8 %8, i64 16, i1 false), !tbaa.struct !41
  %19 = getelementptr inbounds nuw %"struct.boost::urls::detail::any_params_iter", ptr %16, i32 0, i32 3
  %20 = load i8, ptr %10, align 1, !tbaa !18, !range !34, !noundef !35
  %21 = trunc i8 %20 to i1
  %22 = zext i1 %21 to i8
  store i8 %22, ptr %19, align 8, !tbaa !52
  ret void
}

; Function Attrs: mustprogress nounwind uwtable
define linkonce_odr hidden void @_ZN5boost4core17basic_string_viewIcEC2Ev(ptr noundef nonnull align 8 dereferenceable(16) %0) unnamed_addr #2 comdat align 2 {
  %2 = alloca ptr, align 8
  store ptr %0, ptr %2, align 8, !tbaa !3
  %3 = load ptr, ptr %2, align 8
  %4 = getelementptr inbounds nuw %"class.boost::core::basic_string_view", ptr %3, i32 0, i32 0
  store ptr null, ptr %4, align 8, !tbaa !42
  %5 = getelementptr inbounds nuw %"class.boost::core::basic_string_view", ptr %3, i32 0, i32 1
  store i64 0, ptr %5, align 8, !tbaa !43
  ret void
}

; Function Attrs: mustprogress nounwind uwtable
define linkonce_odr hidden { ptr, i64 } @_ZNK5boost4urls7grammar16string_view_basecvNS_4core17basic_string_viewIcEEEv(ptr noundef nonnull align 8 dereferenceable(16) %0) #2 comdat align 2 {
  %2 = alloca %"class.boost::core::basic_string_view", align 8
  %3 = alloca ptr, align 8
  store ptr %0, ptr %3, align 8, !tbaa !3
  %4 = load ptr, ptr %3, align 8
  %5 = getelementptr inbounds nuw %"class.boost::urls::grammar::string_view_base", ptr %4, i32 0, i32 0
  call void @llvm.memcpy.p0.p0.i64(ptr align 8 %2, ptr align 8 %5, i64 16, i1 false), !tbaa.struct !41
  %6 = load { ptr, i64 }, ptr %2, align 8
  ret { ptr, i64 } %6
}

; Function Attrs: mustprogress nounwind uwtable
define linkonce_odr hidden void @_ZN5boost4urls19params_encoded_base8iteratorC2ERKNS0_6detail16params_iter_implE(ptr noundef nonnull align 8 dereferenceable(104) %0, ptr noundef nonnull align 8 dereferenceable(104) %1) unnamed_addr #2 comdat align 2 {
  %3 = alloca ptr, align 8
  %4 = alloca ptr, align 8
  store ptr %0, ptr %3, align 8, !tbaa !3
  store ptr %1, ptr %4, align 8, !tbaa !3
  %5 = load ptr, ptr %3, align 8
  %6 = getelementptr inbounds nuw %"class.boost::urls::params_encoded_base::iterator", ptr %5, i32 0, i32 0
  %7 = load ptr, ptr %4, align 8, !tbaa !3
  call void @llvm.memcpy.p0.p0.i64(ptr align 8 %6, ptr align 8 %7, i64 104, i1 false)
  ret void
}

; Function Attrs: mustprogress nounwind uwtable
define linkonce_odr hidden void @_ZN5boost4urls6detail24param_encoded_value_iterC2EmRKNS0_15pct_string_viewEb(ptr noundef nonnull align 8 dereferenceable(58) %0, i64 noundef %1, ptr noundef nonnull align 8 dereferenceable(24) %2, i1 noundef zeroext %3) unnamed_addr #2 comdat align 2 {
  %5 = alloca ptr, align 8
  %6 = alloca i64, align 8
  %7 = alloca ptr, align 8
  %8 = alloca i8, align 1
  %9 = alloca %"class.boost::core::basic_string_view", align 8
  %10 = alloca %"class.boost::core::basic_string_view", align 8
  store ptr %0, ptr %5, align 8, !tbaa !3
  store i64 %1, ptr %6, align 8, !tbaa !19
  store ptr %2, ptr %7, align 8, !tbaa !3
  %11 = zext i1 %3 to i8
  store i8 %11, ptr %8, align 1, !tbaa !18
  %12 = load ptr, ptr %5, align 8
  %13 = load ptr, ptr %7, align 8, !tbaa !3
  %14 = call { ptr, i64 } @_ZNK5boost4urls7grammar16string_view_basecvNS_4core17basic_string_viewIcEEEv(ptr noundef nonnull align 8 dereferenceable(16) %13) #11
  %15 = getelementptr inbounds nuw { ptr, i64 }, ptr %9, i32 0, i32 0
  %16 = extractvalue { ptr, i64 } %14, 0
  store ptr %16, ptr %15, align 8
  %17 = getelementptr inbounds nuw { ptr, i64 }, ptr %9, i32 0, i32 1
  %18 = extractvalue { ptr, i64 } %14, 1
  store i64 %18, ptr %17, align 8
  call void @_ZN5boost4core17basic_string_viewIcEC2Ev(ptr noundef nonnull align 8 dereferenceable(16) %10) #11
  %19 = getelementptr inbounds nuw { ptr, i64 }, ptr %9, i32 0, i32 0
  %20 = load ptr, ptr %19, align 8
  %21 = getelementptr inbounds nuw { ptr, i64 }, ptr %9, i32 0, i32 1
  %22 = load i64, ptr %21, align 8
  %23 = getelementptr inbounds nuw { ptr, i64 }, ptr %10, i32 0, i32 0
  %24 = load ptr, ptr %23, align 8
  %25 = getelementptr inbounds nuw { ptr, i64 }, ptr %10, i32 0, i32 1
  %26 = load i64, ptr %25, align 8
  call void @_ZN5boost4urls6detail15any_params_iterC2EbNS_4core17basic_string_viewIcEES5_(ptr noundef nonnull align 8 dereferenceable(41) %12, i1 noundef zeroext false, ptr %20, i64 %22, ptr %24, i64 %26) #11
  store ptr getelementptr inbounds inrange(-16, 40) ({ [7 x ptr] }, ptr @_ZTVN5boost4urls6detail24param_encoded_value_iterE, i32 0, i32 0, i32 2), ptr %12, align 8, !tbaa !29
  %27 = getelementptr inbounds nuw %"struct.boost::urls::detail::param_encoded_value_iter", ptr %12, i32 0, i32 2
  %28 = load i64, ptr %6, align 8, !tbaa !19
  store i64 %28, ptr %27, align 8, !tbaa !31
  %29 = getelementptr inbounds nuw %"struct.boost::urls::detail::param_encoded_value_iter", ptr %12, i32 0, i32 3
  %30 = load i8, ptr %8, align 1, !tbaa !18, !range !34, !noundef !35
  %31 = trunc i8 %30 to i1
  %32 = zext i1 %31 to i8
  store i8 %32, ptr %29, align 8, !tbaa !36
  %33 = getelementptr inbounds nuw %"struct.boost::urls::detail::param_encoded_value_iter", ptr %12, i32 0, i32 4
  store i8 0, ptr %33, align 1, !tbaa !37
  ret void
}

; Function Attrs: mustprogress nounwind uwtable
define linkonce_odr hidden void @_ZNK5boost4urls6detail16params_iter_impl4nextEv(ptr dead_on_unwind noalias writable sret(%"struct.boost::urls::detail::params_iter_impl") align 8 %0, ptr noundef nonnull align 8 dereferenceable(104) %1) #2 comdat align 2 {
  %3 = alloca ptr, align 8
  store ptr %1, ptr %3, align 8, !tbaa !3
  %4 = load ptr, ptr %3, align 8
  call void @llvm.memcpy.p0.p0.i64(ptr align 8 %0, ptr align 8 %4, i64 104, i1 false)
  call void @_ZN5boost4urls6detail16params_iter_impl9incrementEv(ptr noundef nonnull align 8 dereferenceable(104) %0) #11
  ret void
}

; Function Attrs: mustprogress uwtable
define void @_ZN5boost4urls18params_encoded_ref3setENS0_19params_encoded_base8iteratorENS0_15pct_string_viewE(ptr dead_on_unwind noalias writable sret(%"class.boost::urls::params_encoded_base::iterator") align 8 %0, ptr noundef nonnull align 8 dereferenceable(56) %1, ptr noundef byval(%"class.boost::urls::params_encoded_base::iterator") align 8 %2, ptr noundef byval(%"class.boost::urls::pct_string_view") align 8 %3) #4 align 2 personality ptr @__gxx_personality_v0 {
  %5 = alloca ptr, align 8
  %6 = alloca %"struct.boost::urls::detail::params_iter_impl", align 8
  %7 = alloca %"struct.boost::urls::detail::params_iter_impl", align 8
  %8 = alloca %"struct.boost::urls::detail::param_encoded_value_iter", align 8
  %9 = alloca ptr, align 8
  %10 = alloca i32, align 4
  store ptr %1, ptr %5, align 8, !tbaa !3
  %11 = load ptr, ptr %5, align 8
  call void @llvm.lifetime.start.p0(i64 104, ptr %6) #11
  %12 = getelementptr inbounds nuw %"class.boost::urls::params_encoded_ref", ptr %11, i32 0, i32 1
  %13 = load ptr, ptr %12, align 8, !tbaa !7
  %14 = getelementptr inbounds nuw %"class.boost::urls::params_encoded_base::iterator", ptr %2, i32 0, i32 0
  call void @llvm.lifetime.start.p0(i64 104, ptr %7) #11
  %15 = getelementptr inbounds nuw %"class.boost::urls::params_encoded_base::iterator", ptr %2, i32 0, i32 0
  call void @_ZNK5boost4urls6detail16params_iter_impl4nextEv(ptr dead_on_unwind writable sret(%"struct.boost::urls::detail::params_iter_impl") align 8 %7, ptr noundef nonnull align 8 dereferenceable(104) %15) #11
  call void @llvm.lifetime.start.p0(i64 64, ptr %8) #11
  %16 = getelementptr inbounds nuw %"class.boost::urls::params_encoded_base::iterator", ptr %2, i32 0, i32 0
  %17 = getelementptr inbounds nuw %"struct.boost::urls::detail::params_iter_impl", ptr %16, i32 0, i32 4
  %18 = load i64, ptr %17, align 8, !tbaa !22
  %19 = sub i64 %18, 1
  call void @_ZN5boost4urls6detail24param_encoded_value_iterC2EmRKNS0_15pct_string_viewEb(ptr noundef nonnull align 8 dereferenceable(58) %8, i64 noundef %19, ptr noundef nonnull align 8 dereferenceable(24) %3, i1 noundef zeroext true) #11
  invoke void @_ZN5boost4urls8url_base11edit_paramsERKNS0_6detail16params_iter_implES5_ONS2_15any_params_iterE(ptr dead_on_unwind writable sret(%"struct.boost::urls::detail::params_iter_impl") align 8 %6, ptr noundef nonnull align 8 dereferenceable(216) %13, ptr noundef nonnull align 8 dereferenceable(104) %14, ptr noundef nonnull align 8 dereferenceable(104) %7, ptr noundef nonnull align 8 dereferenceable(41) %8)
          to label %20 unwind label %22

20:                                               ; preds = %4
  invoke void @_ZN5boost4urls19params_encoded_base8iteratorC2ERKNS0_6detail16params_iter_implE(ptr noundef nonnull align 8 dereferenceable(104) %0, ptr noundef nonnull align 8 dereferenceable(104) %6)
          to label %21 unwind label %22

21:                                               ; preds = %20
  call void @_ZN5boost4urls6detail15any_params_iterD2Ev(ptr noundef nonnull align 8 dereferenceable(58) %8) #11
  call void @llvm.lifetime.end.p0(i64 64, ptr %8) #11
  call void @llvm.lifetime.end.p0(i64 104, ptr %7) #11
  call void @llvm.lifetime.end.p0(i64 104, ptr %6) #11
  ret void

22:                                               ; preds = %20, %4
  %23 = landingpad { ptr, i32 }
          cleanup
  %24 = extractvalue { ptr, i32 } %23, 0
  store ptr %24, ptr %9, align 8
  %25 = extractvalue { ptr, i32 } %23, 1
  store i32 %25, ptr %10, align 4
  call void @_ZN5boost4urls6detail15any_params_iterD2Ev(ptr noundef nonnull align 8 dereferenceable(58) %8) #11
  call void @llvm.lifetime.end.p0(i64 64, ptr %8) #11
  call void @llvm.lifetime.end.p0(i64 104, ptr %7) #11
  call void @llvm.lifetime.end.p0(i64 104, ptr %6) #11
  br label %26

26:                                               ; preds = %22
  %27 = load ptr, ptr %9, align 8
  %28 = load i32, ptr %10, align 4
  %29 = insertvalue { ptr, i32 } poison, ptr %27, 0
  %30 = insertvalue { ptr, i32 } %29, i32 %28, 1
  resume { ptr, i32 } %30
}