; Function Attrs: mustprogress uwtable
define void @_ZN5boost4urls18params_encoded_ref3setENS0_19params_encoded_base8iteratorENS0_15pct_string_viewE(ptr dead_on_unwind noalias nocapture writable writeonly sret(%"class.boost::urls::params_encoded_base::iterator") align 8 %0, ptr nocapture noundef nonnull readonly align 8 dereferenceable(56) %1, ptr noundef byval(%"class.boost::urls::params_encoded_base::iterator") align 8 %2, ptr nocapture noundef readonly byval(%"class.boost::urls::pct_string_view") align 8 %3) local_unnamed_addr #5 align 2 personality ptr @__gxx_personality_v0 {
  %5 = alloca %"struct.boost::urls::detail::params_iter_impl", align 8
  %6 = alloca %"struct.boost::urls::detail::params_iter_impl", align 8
  %7 = alloca %"struct.boost::urls::detail::param_encoded_value_iter", align 8
  call void @llvm.lifetime.start.p0(i64 104, ptr nonnull %5) #12
  %8 = getelementptr inbounds nuw i8, ptr %1, i64 48
  %9 = load ptr, ptr %8, align 8, !tbaa !3
  call void @llvm.lifetime.start.p0(i64 104, ptr nonnull %6) #12
  call void @llvm.memcpy.p0.p0.i64(ptr noundef nonnull align 8 dereferenceable(104) %6, ptr noundef nonnull align 8 dereferenceable(104) %2, i64 104, i1 false)
  call void @_ZN5boost4urls6detail16params_iter_impl9incrementEv(ptr noundef nonnull align 8 dereferenceable(104) %6) #12
  call void @llvm.lifetime.start.p0(i64 64, ptr nonnull %7) #12
  %10 = getelementptr inbounds nuw i8, ptr %2, i64 72
  %11 = load i64, ptr %10, align 8, !tbaa !76
  %12 = add i64 %11, -1
  %.sroa.0.0.copyload.i.i = load ptr, ptr %3, align 8, !tbaa !82
  %.sroa.2.0..sroa_idx.i.i = getelementptr inbounds i8, ptr %3, i64 8
  %.sroa.2.0.copyload.i.i = load i64, ptr %.sroa.2.0..sroa_idx.i.i, align 8, !tbaa !83
  %13 = getelementptr inbounds nuw i8, ptr %7, i64 8
  store ptr %.sroa.0.0.copyload.i.i, ptr %13, align 8, !tbaa !82
  %.sroa.22.0..sroa_idx.i.i = getelementptr inbounds i8, ptr %7, i64 16
  store i64 %.sroa.2.0.copyload.i.i, ptr %.sroa.22.0..sroa_idx.i.i, align 8, !tbaa !83
  %14 = getelementptr inbounds nuw i8, ptr %7, i64 24
  call void @llvm.memset.p0.i64(ptr noundef nonnull align 8 dereferenceable(17) %14, i8 0, i64 17, i1 false)
  store ptr getelementptr inbounds inrange(-16, 40) (i8, ptr @_ZTVN5boost4urls6detail24param_encoded_value_iterE, i64 16), ptr %7, align 8, !tbaa !20
  %15 = getelementptr inbounds nuw i8, ptr %7, i64 48
  store i64 %12, ptr %15, align 8, !tbaa !78
  %16 = getelementptr inbounds nuw i8, ptr %7, i64 56
  store i8 1, ptr %16, align 8, !tbaa !80
  %17 = getelementptr inbounds nuw i8, ptr %7, i64 57
  store i8 0, ptr %17, align 1, !tbaa !81
  invoke void @_ZN5boost4urls8url_base11edit_paramsERKNS0_6detail16params_iter_implES5_ONS2_15any_params_iterE(ptr dead_on_unwind nonnull writable sret(%"struct.boost::urls::detail::params_iter_impl") align 8 %5, ptr noundef nonnull align 8 dereferenceable(216) %9, ptr noundef nonnull align 8 dereferenceable(104) %2, ptr noundef nonnull align 8 dereferenceable(104) %6, ptr noundef nonnull align 8 dereferenceable(41) %7)
          to label %18 unwind label %19

18:                                               ; preds = %4
  call void @llvm.memcpy.p0.p0.i64(ptr noundef nonnull align 8 dereferenceable(104) %0, ptr noundef nonnull align 8 dereferenceable(104) %5, i64 104, i1 false)
  call void @_ZN5boost4urls6detail15any_params_iterD2Ev(ptr noundef nonnull align 8 dereferenceable(58) %7) #12
  call void @llvm.lifetime.end.p0(i64 64, ptr nonnull %7) #12
  call void @llvm.lifetime.end.p0(i64 104, ptr nonnull %6) #12
  call void @llvm.lifetime.end.p0(i64 104, ptr nonnull %5) #12
  ret void

19:                                               ; preds = %4
  %20 = landingpad { ptr, i32 }
          cleanup
  call void @_ZN5boost4urls6detail15any_params_iterD2Ev(ptr noundef nonnull align 8 dereferenceable(58) %7) #12
  call void @llvm.lifetime.end.p0(i64 64, ptr nonnull %7) #12
  call void @llvm.lifetime.end.p0(i64 104, ptr nonnull %6) #12
  call void @llvm.lifetime.end.p0(i64 104, ptr nonnull %5) #12
  resume { ptr, i32 } %20
}